target datalayout = "e-m:e-p270:32:32-p271:32:32-p272:64:64-i64:64-i128:128-f80:128-n8:16:32:64-S128"
target triple = "x86_64-pc-linux-gnu"

%struct.jsmntok_t = type { i32, i32, i32, i32 }

@.str = private unnamed_addr constant [5 x i8] c"true\00", align 1
@.str.1 = private unnamed_addr constant [6 x i8] c"false\00", align 1

; Function Attrs: null_pointer_is_valid sspstrong uwtable
define zeroext i1 @json_get_boolean(ptr noundef %0, ptr noundef %1, ptr noundef %2, ptr noundef %3) #0 {
  %5 = alloca i1, align 1
  %6 = alloca ptr, align 8
  %7 = alloca ptr, align 8
  %8 = alloca ptr, align 8
  %9 = alloca ptr, align 8
  %10 = alloca i32, align 4
  %11 = alloca i64, align 8
  %12 = alloca ptr, align 8
  %13 = alloca i32, align 4
  store ptr %0, ptr %6, align 8
  store ptr %1, ptr %7, align 8
  store ptr %2, ptr %8, align 8
  store ptr %3, ptr %9, align 8
  call void @llvm.lifetime.start.p0(i64 4, ptr %10) #9
  call void @llvm.lifetime.start.p0(i64 8, ptr %11) #9
  call void @llvm.lifetime.start.p0(i64 8, ptr %12) #9
  %14 = load ptr, ptr %7, align 8
  %15 = getelementptr %struct.jsmntok_t, ptr %14, i64 1
  store ptr %15, ptr %12, align 8
  store i32 0, ptr %10, align 4
  br label %16

16:                                               ; preds = %126, %4
  %17 = load i32, ptr %10, align 4
  %18 = load ptr, ptr %7, align 8
  %19 = getelementptr inbounds nuw %struct.jsmntok_t, ptr %18, i32 0, i32 3
  %20 = load i32, ptr %19, align 4
  %21 = icmp slt i32 %17, %20
  br i1 %21, label %22, label %129

22:                                               ; preds = %16
  %23 = load ptr, ptr %12, align 8
  %24 = getelementptr inbounds nuw %struct.jsmntok_t, ptr %23, i32 0, i32 0
  %25 = load i32, ptr %24, align 4
  %26 = icmp eq i32 %25, 3
  br i1 %26, label %27, label %123

27:                                               ; preds = %22
  %28 = load ptr, ptr %6, align 8
  %29 = load ptr, ptr %12, align 8
  %30 = getelementptr inbounds nuw %struct.jsmntok_t, ptr %29, i32 0, i32 1
  %31 = load i32, ptr %30, align 4
  %32 = sext i32 %31 to i64
  %33 = getelementptr i8, ptr %28, i64 %32
  %34 = load ptr, ptr %8, align 8
  %35 = load ptr, ptr %12, align 8
  %36 = getelementptr inbounds nuw %struct.jsmntok_t, ptr %35, i32 0, i32 2
  %37 = load i32, ptr %36, align 4
  %38 = load ptr, ptr %12, align 8
  %39 = getelementptr inbounds nuw %struct.jsmntok_t, ptr %38, i32 0, i32 1
  %40 = load i32, ptr %39, align 4
  %41 = sub i32 %37, %40
  %42 = sext i32 %41 to i64
  %43 = call i32 @strncmp(ptr noundef %33, ptr noundef %34, i64 noundef %42) #12
  %44 = icmp ne i32 %43, 0
  br i1 %44, label %123, label %45

45:                                               ; preds = %27
  %46 = load ptr, ptr %8, align 8
  %47 = call i64 @strlen(ptr noundef %46) #12
  %48 = load ptr, ptr %12, align 8
  %49 = getelementptr inbounds nuw %struct.jsmntok_t, ptr %48, i32 0, i32 2
  %50 = load i32, ptr %49, align 4
  %51 = load ptr, ptr %12, align 8
  %52 = getelementptr inbounds nuw %struct.jsmntok_t, ptr %51, i32 0, i32 1
  %53 = load i32, ptr %52, align 4
  %54 = sub i32 %50, %53
  %55 = sext i32 %54 to i64
  %56 = icmp eq i64 %47, %55
  br i1 %56, label %57, label %123

57:                                               ; preds = %45
  %58 = load ptr, ptr %12, align 8
  %59 = getelementptr inbounds nuw %struct.jsmntok_t, ptr %58, i32 0, i32 3
  %60 = load i32, ptr %59, align 4
  %61 = icmp eq i32 %60, 1
  br i1 %61, label %62, label %123

62:                                               ; preds = %57
  %63 = load ptr, ptr %12, align 8
  %64 = getelementptr %struct.jsmntok_t, ptr %63, i64 1
  %65 = getelementptr inbounds nuw %struct.jsmntok_t, ptr %64, i32 0, i32 0
  %66 = load i32, ptr %65, align 4
  %67 = icmp eq i32 %66, 4
  br i1 %67, label %68, label %123

68:                                               ; preds = %62
  %69 = load ptr, ptr %12, align 8
  %70 = getelementptr %struct.jsmntok_t, ptr %69, i64 1
  %71 = getelementptr inbounds nuw %struct.jsmntok_t, ptr %70, i32 0, i32 2
  %72 = load i32, ptr %71, align 4
  %73 = load ptr, ptr %12, align 8
  %74 = getelementptr %struct.jsmntok_t, ptr %73, i64 1
  %75 = getelementptr inbounds nuw %struct.jsmntok_t, ptr %74, i32 0, i32 1
  %76 = load i32, ptr %75, align 4
  %77 = sub i32 %72, %76
  %78 = sext i32 %77 to i64
  store i64 %78, ptr %11, align 8
  %79 = load ptr, ptr %6, align 8
  %80 = load ptr, ptr %12, align 8
  %81 = getelementptr %struct.jsmntok_t, ptr %80, i64 1
  %82 = getelementptr inbounds nuw %struct.jsmntok_t, ptr %81, i32 0, i32 1
  %83 = load i32, ptr %82, align 4
  %84 = sext i32 %83 to i64
  %85 = getelementptr i8, ptr %79, i64 %84
  %86 = load i8, ptr %85, align 1
  %87 = sext i8 %86 to i32
  switch i32 %87, label %122 [
    i32 116, label %88
    i32 102, label %105
  ]

88:                                               ; preds = %68
  %89 = load i64, ptr %11, align 8
  %90 = icmp eq i64 %89, 4
  br i1 %90, label %91, label %104

91:                                               ; preds = %88
  %92 = load ptr, ptr %6, align 8
  %93 = load ptr, ptr %12, align 8
  %94 = getelementptr %struct.jsmntok_t, ptr %93, i64 1
  %95 = getelementptr inbounds nuw %struct.jsmntok_t, ptr %94, i32 0, i32 1
  %96 = load i32, ptr %95, align 4
  %97 = sext i32 %96 to i64
  %98 = getelementptr i8, ptr %92, i64 %97
  %99 = load i64, ptr %11, align 8
  %100 = call i32 @strncmp(ptr noundef %98, ptr noundef @.str, i64 noundef %99) #12
  %101 = icmp eq i32 %100, 0
  br i1 %101, label %102, label %104

102:                                              ; preds = %91
  %103 = load ptr, ptr %9, align 8
  store i8 1, ptr %103, align 1
  store i1 true, ptr %5, align 1
  store i32 1, ptr %13, align 4
  br label %130

104:                                              ; preds = %91, %88
  store i1 false, ptr %5, align 1
  store i32 1, ptr %13, align 4
  br label %130

105:                                              ; preds = %68
  %106 = load i64, ptr %11, align 8
  %107 = icmp eq i64 %106, 5
  br i1 %107, label %108, label %121

108:                                              ; preds = %105
  %109 = load ptr, ptr %6, align 8
  %110 = load ptr, ptr %12, align 8
  %111 = getelementptr %struct.jsmntok_t, ptr %110, i64 1
  %112 = getelementptr inbounds nuw %struct.jsmntok_t, ptr %111, i32 0, i32 1
  %113 = load i32, ptr %112, align 4
  %114 = sext i32 %113 to i64
  %115 = getelementptr i8, ptr %109, i64 %114
  %116 = load i64, ptr %11, align 8
  %117 = call i32 @strncmp(ptr noundef %115, ptr noundef @.str.1, i64 noundef %116) #12
  %118 = icmp eq i32 %117, 0
  br i1 %118, label %119, label %121

119:                                              ; preds = %108
  %120 = load ptr, ptr %9, align 8
  store i8 0, ptr %120, align 1
  store i1 true, ptr %5, align 1
  store i32 1, ptr %13, align 4
  br label %130

121:                                              ; preds = %108, %105
  store i1 false, ptr %5, align 1
  store i32 1, ptr %13, align 4
  br label %130

122:                                              ; preds = %68
  store i1 false, ptr %5, align 1
  store i32 1, ptr %13, align 4
  br label %130

123:                                              ; preds = %62, %57, %45, %27, %22
  %124 = load ptr, ptr %12, align 8
  %125 = call ptr @json_get_next_object(ptr noundef %124)
  store ptr %125, ptr %12, align 8
  br label %126

126:                                              ; preds = %123
  %127 = load i32, ptr %10, align 4
  %128 = add i32 %127, 1
  store i32 %128, ptr %10, align 4
  br label %16, !llvm.loop !18

129:                                              ; preds = %16
  store i1 false, ptr %5, align 1
  store i32 1, ptr %13, align 4
  br label %130

130:                                              ; preds = %129, %122, %121, %119, %104, %102
  call void @llvm.lifetime.end.p0(i64 8, ptr %12) #9
  call void @llvm.lifetime.end.p0(i64 8, ptr %11) #9
  call void @llvm.lifetime.end.p0(i64 4, ptr %10) #9
  %131 = load i1, ptr %5, align 1
  ret i1 %131
}