; Function Attrs: nofree nounwind null_pointer_is_valid sspstrong memory(read, argmem: readwrite, inaccessiblemem: none) uwtable
define noundef zeroext i1 @json_get_boolean(ptr noundef readonly captures(none) %0, ptr noundef readonly %1, ptr noundef readonly captures(none) %2, ptr noundef writeonly captures(none) %3) local_unnamed_addr #9 {
  %5 = getelementptr inbounds nuw i8, ptr %1, i64 12
  %6 = load i32, ptr %5, align 4
  %7 = icmp sgt i32 %6, 0
  br i1 %7, label %.lr.ph.preheader, label %.loopexit

.lr.ph.preheader:                                 ; preds = %4
  %8 = getelementptr i8, ptr %1, i64 16
  br label %.lr.ph

.lr.ph:                                           ; preds = %.lr.ph.preheader, %51
  %.035 = phi ptr [ %52, %51 ], [ %8, %.lr.ph.preheader ]
  %.03134 = phi i32 [ %53, %51 ], [ 0, %.lr.ph.preheader ]
  %9 = load i32, ptr %.035, align 4
  %10 = icmp eq i32 %9, 3
  br i1 %10, label %11, label %51

11:                                               ; preds = %.lr.ph
  %12 = getelementptr inbounds nuw i8, ptr %.035, i64 4
  %13 = load i32, ptr %12, align 4
  %14 = sext i32 %13 to i64
  %15 = getelementptr i8, ptr %0, i64 %14
  %16 = getelementptr inbounds nuw i8, ptr %.035, i64 8
  %17 = load i32, ptr %16, align 4
  %18 = sub i32 %17, %13
  %19 = sext i32 %18 to i64
  %20 = tail call i32 @strncmp(ptr noundef %15, ptr noundef %2, i64 noundef %19) #12
  %.not = icmp eq i32 %20, 0
  br i1 %.not, label %21, label %51

21:                                               ; preds = %11
  %22 = tail call i64 @strlen(ptr noundef %2) #12
  %23 = icmp eq i64 %22, %19
  br i1 %23, label %24, label %51

24:                                               ; preds = %21
  %25 = getelementptr inbounds nuw i8, ptr %.035, i64 12
  %26 = load i32, ptr %25, align 4
  %27 = icmp eq i32 %26, 1
  br i1 %27, label %28, label %51

28:                                               ; preds = %24
  %29 = getelementptr i8, ptr %.035, i64 16
  %30 = load i32, ptr %29, align 4
  %31 = icmp eq i32 %30, 4
  br i1 %31, label %32, label %51

32:                                               ; preds = %28
  %33 = getelementptr i8, ptr %.035, i64 24
  %34 = load i32, ptr %33, align 4
  %35 = getelementptr i8, ptr %.035, i64 20
  %36 = load i32, ptr %35, align 4
  %37 = sub i32 %34, %36
  %38 = sext i32 %36 to i64
  %39 = getelementptr i8, ptr %0, i64 %38
  %40 = load i8, ptr %39, align 1
  switch i8 %40, label %.loopexit [
    i8 116, label %41
    i8 102, label %46
  ]

41:                                               ; preds = %32
  %42 = icmp eq i32 %37, 4
  br i1 %42, label %43, label %.loopexit

43:                                               ; preds = %41
  %44 = tail call i32 @strncmp(ptr noundef %39, ptr noundef nonnull dereferenceable(5) @.str, i64 noundef 4) #12
  %45 = icmp eq i32 %44, 0
  br i1 %45, label %.loopexit.sink.split, label %.loopexit

46:                                               ; preds = %32
  %47 = icmp eq i32 %37, 5
  br i1 %47, label %48, label %.loopexit

48:                                               ; preds = %46
  %49 = tail call i32 @strncmp(ptr noundef %39, ptr noundef nonnull dereferenceable(6) @.str.1, i64 noundef 5) #12
  %50 = icmp eq i32 %49, 0
  br i1 %50, label %.loopexit.sink.split, label %.loopexit

51:                                               ; preds = %28, %24, %21, %11, %.lr.ph
  %52 = tail call fastcc ptr @json_get_next_object(ptr noundef %.035)
  %53 = add nuw nsw i32 %.03134, 1
  %exitcond.not = icmp eq i32 %53, %6
  br i1 %exitcond.not, label %.loopexit, label %.lr.ph, !llvm.loop !16

.loopexit.sink.split:                             ; preds = %48, %43
  %.sink = phi i8 [ 1, %43 ], [ 0, %48 ]
  store i8 %.sink, ptr %3, align 1
  br label %.loopexit

.loopexit:                                        ; preds = %51, %.loopexit.sink.split, %4, %32, %46, %48, %41, %43
  %.030 = phi i1 [ false, %43 ], [ false, %41 ], [ false, %48 ], [ false, %46 ], [ false, %32 ], [ false, %4 ], [ true, %.loopexit.sink.split ], [ false, %51 ]
  ret i1 %.030
}